; Function Attrs: mustprogress nounwind uwtable
define dso_local void @_ZN16ImGuiListClipperD2Ev(ptr noundef nonnull align 8 captures(none) dereferenceable(48) %0) unnamed_addr #35 align 2 personality ptr @__gxx_personality_v0 {
  invoke void @_ZN16ImGuiListClipper3EndEv(ptr noundef nonnull align 8 dereferenceable(48) %0)
          to label %2 unwind label %3

2:                                                ; preds = %1
  ret void

3:                                                ; preds = %1
  %4 = landingpad { ptr, i32 }
          catch ptr null
  %5 = extractvalue { ptr, i32 } %4, 0
  tail call void @__clang_call_terminate(ptr %5) #63
  unreachable
}